target datalayout = "e-m:e-p270:32:32-p271:32:32-p272:64:64-i64:64-i128:128-f80:128-n8:16:32:64-S128"
target triple = "x86_64-pc-linux-gnu"

%"class.datalog::mk_slice" = type { %"class.datalog::rule_transformer::plugin", ptr, ptr, ptr, %class.svector, %class.svector, %class.ref_vector, %class.svector, %class.obj_map, %class.obj_map.1, %class.ref_vector.6, ptr, ptr }
%"class.datalog::rule_transformer::plugin" = type { ptr, i32, i8, ptr }
%class.ref_vector = type { %class.ref_vector_core }
%class.ref_vector_core = type { %class.ref_manager_wrapper, %class.ptr_vector }
%class.ref_manager_wrapper = type { ptr }
%class.ptr_vector = type { %class.vector.0 }
%class.vector.0 = type { ptr }
%class.svector = type { %class.vector }
%class.vector = type { ptr }
%class.obj_map = type { %class.core_hashtable }
%class.core_hashtable = type <{ ptr, i32, i32, i32, [4 x i8] }>
%class.obj_map.1 = type { %class.core_hashtable.2 }
%class.core_hashtable.2 = type <{ ptr, i32, i32, i32, [4 x i8] }>
%class.ref_vector.6 = type { %class.ref_vector_core.7 }
%class.ref_vector_core.7 = type { %class.ref_manager_wrapper.8, %class.ptr_vector.9 }
%class.ref_manager_wrapper.8 = type { ptr }
%class.ptr_vector.9 = type { %class.vector.10 }
%class.vector.10 = type { ptr }
%class.bit_vector = type { i32, i32, ptr }
%class.ast = type { i32, i32, i32, i32 }
%class.app = type { %class.expr, ptr, i32, %struct.app_flags, [0 x ptr] }
%class.expr = type { %class.ast }
%struct.app_flags = type <{ i16, i8, i8 }>
%class.var = type { %class.expr, i32, ptr }

; Function Attrs: mustprogress nounwind uwtable
define linkonce_odr hidden noundef i32 @_ZNK10bit_vector12get_bit_wordEj(ptr noundef nonnull align 8 dereferenceable(16) %0, i32 noundef %1) #5 comdat align 2 {
  %3 = alloca ptr, align 8
  %4 = alloca i32, align 4
  store ptr %0, ptr %3, align 8, !tbaa !246
  store i32 %1, ptr %4, align 4, !tbaa !50
  %5 = load ptr, ptr %3, align 8
  %6 = getelementptr inbounds nuw %class.bit_vector, ptr %5, i32 0, i32 2
  %7 = load ptr, ptr %6, align 8, !tbaa !251
  %8 = load i32, ptr %4, align 4, !tbaa !50
  %9 = udiv i32 %8, 32
  %10 = zext i32 %9 to i64
  %11 = getelementptr inbounds nuw i32, ptr %7, i64 %10
  %12 = load i32, ptr %11, align 4, !tbaa !50
  ret i32 %12
}

; Function Attrs: mustprogress nounwind uwtable
define linkonce_odr hidden noundef i32 @_ZNK3ast8get_kindEv(ptr noundef nonnull align 4 dereferenceable(16) %0) #5 comdat align 2 {
  %2 = alloca ptr, align 8
  store ptr %0, ptr %2, align 8, !tbaa !283
  %3 = load ptr, ptr %2, align 8
  %4 = getelementptr inbounds nuw %class.ast, ptr %3, i32 0, i32 1
  %5 = load i32, ptr %4, align 4
  %6 = and i32 %5, 65535
  ret i32 %6
}

; Function Attrs: mustprogress nounwind uwtable
define linkonce_odr hidden noundef nonnull align 4 dereferenceable(4) ptr @_ZN10bit_vector12get_bit_wordEj(ptr noundef nonnull align 8 dereferenceable(16) %0, i32 noundef %1) #5 comdat align 2 {
  %3 = alloca ptr, align 8
  %4 = alloca i32, align 4
  store ptr %0, ptr %3, align 8, !tbaa !246
  store i32 %1, ptr %4, align 4, !tbaa !50
  %5 = load ptr, ptr %3, align 8
  %6 = getelementptr inbounds nuw %class.bit_vector, ptr %5, i32 0, i32 2
  %7 = load ptr, ptr %6, align 8, !tbaa !251
  %8 = load i32, ptr %4, align 4, !tbaa !50
  %9 = udiv i32 %8, 32
  %10 = zext i32 %9 to i64
  %11 = getelementptr inbounds nuw i32, ptr %7, i64 %10
  ret ptr %11
}

; Function Attrs: mustprogress nounwind uwtable
define linkonce_odr hidden noundef i32 @_ZN10bit_vector12get_pos_maskEj(i32 noundef %0) #5 comdat align 2 {
  %2 = alloca i32, align 4
  store i32 %0, ptr %2, align 4, !tbaa !50
  %3 = load i32, ptr %2, align 4, !tbaa !50
  %4 = urem i32 %3, 32
  %5 = shl i32 1, %4
  ret i32 %5
}

; Function Attrs: mustprogress nounwind uwtable
define linkonce_odr hidden noundef ptr @_ZNK3app8get_declEv(ptr noundef nonnull align 8 dereferenceable(32) %0) #5 comdat align 2 {
  %2 = alloca ptr, align 8
  store ptr %0, ptr %2, align 8, !tbaa !265
  %3 = load ptr, ptr %2, align 8
  %4 = getelementptr inbounds nuw %class.app, ptr %3, i32 0, i32 1
  %5 = load ptr, ptr %4, align 8, !tbaa !408
  ret ptr %5
}

; Function Attrs: mustprogress uwtable
define linkonce_odr hidden noundef zeroext i1 @_ZNK10bit_vector3getEj(ptr noundef nonnull align 8 dereferenceable(16) %0, i32 noundef %1) #4 comdat align 2 {
  %3 = alloca ptr, align 8
  %4 = alloca i32, align 4
  %5 = alloca i8, align 1
  store ptr %0, ptr %3, align 8, !tbaa !246
  store i32 %1, ptr %4, align 4, !tbaa !50
  %6 = load ptr, ptr %3, align 8
  call void @llvm.lifetime.start.p0(i64 1, ptr %5) #3
  %7 = load i32, ptr %4, align 4, !tbaa !50
  %8 = call noundef i32 @_ZNK10bit_vector12get_bit_wordEj(ptr noundef nonnull align 8 dereferenceable(16) %6, i32 noundef %7)
  %9 = load i32, ptr %4, align 4, !tbaa !50
  %10 = call noundef i32 @_ZN10bit_vector12get_pos_maskEj(i32 noundef %9)
  %11 = and i32 %8, %10
  %12 = icmp ne i32 %11, 0
  %13 = zext i1 %12 to i8
  store i8 %13, ptr %5, align 1, !tbaa !51
  %14 = load i8, ptr %5, align 1, !tbaa !51, !range !53, !noundef !54
  %15 = trunc i8 %14 to i1
  call void @llvm.lifetime.end.p0(i64 1, ptr %5) #3
  ret i1 %15
}

; Function Attrs: mustprogress nounwind uwtable
define linkonce_odr hidden noundef nonnull align 1 dereferenceable(1) ptr @_ZN6vectorIbLb0EjEixEj(ptr noundef nonnull align 8 dereferenceable(8) %0, i32 noundef %1) #5 comdat align 2 {
  %3 = alloca ptr, align 8
  %4 = alloca i32, align 4
  store ptr %0, ptr %3, align 8, !tbaa !241
  store i32 %1, ptr %4, align 4, !tbaa !50
  %5 = load ptr, ptr %3, align 8
  %6 = getelementptr inbounds nuw %class.vector, ptr %5, i32 0, i32 0
  %7 = load ptr, ptr %6, align 8, !tbaa !289
  %8 = load i32, ptr %4, align 4, !tbaa !50
  %9 = zext i32 %8 to i64
  %10 = getelementptr inbounds nuw i8, ptr %7, i64 %9
  ret ptr %10
}

; Function Attrs: mustprogress nounwind uwtable
define linkonce_odr hidden noundef i32 @_ZNK3var7get_idxEv(ptr noundef nonnull align 8 dereferenceable(32) %0) #5 comdat align 2 {
  %2 = alloca ptr, align 8
  store ptr %0, ptr %2, align 8, !tbaa !285
  %3 = load ptr, ptr %2, align 8
  %4 = getelementptr inbounds nuw %class.var, ptr %3, i32 0, i32 1
  %5 = load i32, ptr %4, align 8, !tbaa !287
  ret i32 %5
}

; Function Attrs: inlinehint mustprogress nounwind uwtable
define linkonce_odr hidden noundef ptr @_Z6to_varP3ast(ptr noundef %0) #6 comdat {
  %2 = alloca ptr, align 8
  store ptr %0, ptr %2, align 8, !tbaa !283
  %3 = load ptr, ptr %2, align 8, !tbaa !283
  ret ptr %3
}

; Function Attrs: inlinehint mustprogress uwtable
define linkonce_odr hidden noundef zeroext i1 @_Z6is_varPK3ast(ptr noundef %0) #8 comdat {
  %2 = alloca ptr, align 8
  store ptr %0, ptr %2, align 8, !tbaa !283
  %3 = load ptr, ptr %2, align 8, !tbaa !283
  %4 = call noundef i32 @_ZNK3ast8get_kindEv(ptr noundef nonnull align 4 dereferenceable(16) %3)
  %5 = icmp eq i32 %4, 1
  ret i1 %5
}

; Function Attrs: mustprogress nounwind uwtable
define linkonce_odr hidden noundef ptr @_ZNK3app7get_argEj(ptr noundef nonnull align 8 dereferenceable(32) %0, i32 noundef %1) #5 comdat align 2 {
  %3 = alloca ptr, align 8
  %4 = alloca i32, align 4
  store ptr %0, ptr %3, align 8, !tbaa !265
  store i32 %1, ptr %4, align 4, !tbaa !50
  %5 = load ptr, ptr %3, align 8
  %6 = getelementptr inbounds nuw %class.app, ptr %5, i32 0, i32 4
  %7 = load i32, ptr %4, align 4, !tbaa !50
  %8 = zext i32 %7 to i64
  %9 = getelementptr inbounds nuw [0 x ptr], ptr %6, i64 0, i64 %8
  %10 = load ptr, ptr %9, align 8, !tbaa !272
  ret ptr %10
}

; Function Attrs: mustprogress uwtable
define linkonce_odr hidden void @_ZN10bit_vector5unsetEj(ptr noundef nonnull align 8 dereferenceable(16) %0, i32 noundef %1) #4 comdat align 2 {
  %3 = alloca ptr, align 8
  %4 = alloca i32, align 4
  store ptr %0, ptr %3, align 8, !tbaa !246
  store i32 %1, ptr %4, align 4, !tbaa !50
  %5 = load ptr, ptr %3, align 8
  %6 = load i32, ptr %4, align 4, !tbaa !50
  %7 = call noundef i32 @_ZN10bit_vector12get_pos_maskEj(i32 noundef %6)
  %8 = xor i32 %7, -1
  %9 = load i32, ptr %4, align 4, !tbaa !50
  %10 = call noundef nonnull align 4 dereferenceable(4) ptr @_ZN10bit_vector12get_bit_wordEj(ptr noundef nonnull align 8 dereferenceable(16) %5, i32 noundef %9)
  %11 = load i32, ptr %10, align 4, !tbaa !50
  %12 = and i32 %11, %8
  store i32 %12, ptr %10, align 4, !tbaa !50
  ret void
}

; Function Attrs: mustprogress nounwind uwtable
define linkonce_odr hidden noundef i32 @_ZNK3app12get_num_argsEv(ptr noundef nonnull align 8 dereferenceable(32) %0) #5 comdat align 2 {
  %2 = alloca ptr, align 8
  store ptr %0, ptr %2, align 8, !tbaa !265
  %3 = load ptr, ptr %2, align 8
  %4 = getelementptr inbounds nuw %class.app, ptr %3, i32 0, i32 2
  %5 = load i32, ptr %4, align 8, !tbaa !279
  ret i32 %5
}

; Function Attrs: mustprogress uwtable
define linkonce_odr hidden noundef nonnull align 8 dereferenceable(16) ptr @_ZN7datalog8mk_slice19get_predicate_sliceEP3app(ptr noundef nonnull align 8 dereferenceable(168) %0, ptr noundef %1) #4 comdat align 2 {
  %3 = alloca ptr, align 8
  %4 = alloca ptr, align 8
  store ptr %0, ptr %3, align 8, !tbaa !3
  store ptr %1, ptr %4, align 8, !tbaa !265
  %5 = load ptr, ptr %3, align 8
  %6 = load ptr, ptr %4, align 8, !tbaa !265
  %7 = call noundef ptr @_ZNK3app8get_declEv(ptr noundef nonnull align 8 dereferenceable(32) %6)
  %8 = call noundef nonnull align 8 dereferenceable(16) ptr @_ZN7datalog8mk_slice19get_predicate_sliceEP9func_decl(ptr noundef nonnull align 8 dereferenceable(168) %5, ptr noundef %7)
  ret ptr %8
}

; Function Attrs: mustprogress uwtable
define hidden void @_ZN7datalog8mk_slice9init_varsEP3appbb(ptr noundef nonnull align 8 dereferenceable(168) %0, ptr noundef %1, i1 noundef zeroext %2, i1 noundef zeroext %3) #4 align 2 {
  %5 = alloca ptr, align 8
  %6 = alloca ptr, align 8
  %7 = alloca i8, align 1
  %8 = alloca i8, align 1
  %9 = alloca ptr, align 8
  %10 = alloca i32, align 4
  %11 = alloca ptr, align 8
  %12 = alloca i32, align 4
  store ptr %0, ptr %5, align 8, !tbaa !3
  store ptr %1, ptr %6, align 8, !tbaa !265
  %13 = zext i1 %2 to i8
  store i8 %13, ptr %7, align 1, !tbaa !51
  %14 = zext i1 %3 to i8
  store i8 %14, ptr %8, align 1, !tbaa !51
  %15 = load ptr, ptr %5, align 8
  call void @llvm.lifetime.start.p0(i64 8, ptr %9) #3
  %16 = load ptr, ptr %6, align 8, !tbaa !265
  %17 = call noundef nonnull align 8 dereferenceable(16) ptr @_ZN7datalog8mk_slice19get_predicate_sliceEP3app(ptr noundef nonnull align 8 dereferenceable(168) %15, ptr noundef %16)
  store ptr %17, ptr %9, align 8, !tbaa !246
  call void @llvm.lifetime.start.p0(i64 4, ptr %10) #3
  store i32 0, ptr %10, align 4, !tbaa !50
  br label %18

18:                                               ; preds = %69, %4
  %19 = load i32, ptr %10, align 4, !tbaa !50
  %20 = load ptr, ptr %6, align 8, !tbaa !265
  %21 = call noundef i32 @_ZNK3app12get_num_argsEv(ptr noundef nonnull align 8 dereferenceable(32) %20)
  %22 = icmp ult i32 %19, %21
  br i1 %22, label %24, label %23

23:                                               ; preds = %18
  call void @llvm.lifetime.end.p0(i64 4, ptr %10) #3
  br label %72

24:                                               ; preds = %18
  %25 = load i8, ptr %8, align 1, !tbaa !51, !range !53, !noundef !54
  %26 = trunc i8 %25 to i1
  br i1 %26, label %27, label %30

27:                                               ; preds = %24
  %28 = load ptr, ptr %9, align 8, !tbaa !246
  %29 = load i32, ptr %10, align 4, !tbaa !50
  call void @_ZN10bit_vector5unsetEj(ptr noundef nonnull align 8 dereferenceable(16) %28, i32 noundef %29)
  br label %30

30:                                               ; preds = %27, %24
  call void @llvm.lifetime.start.p0(i64 8, ptr %11) #3
  %31 = load ptr, ptr %6, align 8, !tbaa !265
  %32 = load i32, ptr %10, align 4, !tbaa !50
  %33 = call noundef ptr @_ZNK3app7get_argEj(ptr noundef nonnull align 8 dereferenceable(32) %31, i32 noundef %32)
  store ptr %33, ptr %11, align 8, !tbaa !272
  %34 = load ptr, ptr %11, align 8, !tbaa !272
  %35 = call noundef zeroext i1 @_Z6is_varPK3ast(ptr noundef %34)
  br i1 %35, label %36, label %65

36:                                               ; preds = %30
  call void @llvm.lifetime.start.p0(i64 4, ptr %12) #3
  %37 = load ptr, ptr %11, align 8, !tbaa !272
  %38 = call noundef ptr @_Z6to_varP3ast(ptr noundef %37)
  %39 = call noundef i32 @_ZNK3var7get_idxEv(ptr noundef nonnull align 8 dereferenceable(32) %38)
  store i32 %39, ptr %12, align 4, !tbaa !50
  %40 = load i32, ptr %12, align 4, !tbaa !50
  call void @_ZN7datalog8mk_slice7add_varEj(ptr noundef nonnull align 8 dereferenceable(168) %15, i32 noundef %40)
  %41 = load i8, ptr %7, align 1, !tbaa !51, !range !53, !noundef !54
  %42 = trunc i8 %41 to i1
  br i1 %42, label %43, label %47

43:                                               ; preds = %36
  %44 = getelementptr inbounds nuw %"class.datalog::mk_slice", ptr %15, i32 0, i32 5
  %45 = load i32, ptr %12, align 4, !tbaa !50
  %46 = call noundef nonnull align 1 dereferenceable(1) ptr @_ZN6vectorIbLb0EjEixEj(ptr noundef nonnull align 8 dereferenceable(8) %44, i32 noundef %45)
  store i8 1, ptr %46, align 1, !tbaa !51
  br label %51

47:                                               ; preds = %36
  %48 = getelementptr inbounds nuw %"class.datalog::mk_slice", ptr %15, i32 0, i32 4
  %49 = load i32, ptr %12, align 4, !tbaa !50
  %50 = call noundef nonnull align 1 dereferenceable(1) ptr @_ZN6vectorIbLb0EjEixEj(ptr noundef nonnull align 8 dereferenceable(8) %48, i32 noundef %49)
  store i8 1, ptr %50, align 1, !tbaa !51
  br label %51

51:                                               ; preds = %47, %43
  %52 = load ptr, ptr %9, align 8, !tbaa !246
  %53 = load i32, ptr %10, align 4, !tbaa !50
  %54 = call noundef zeroext i1 @_ZNK10bit_vector3getEj(ptr noundef nonnull align 8 dereferenceable(16) %52, i32 noundef %53)
  %55 = zext i1 %54 to i32
  %56 = getelementptr inbounds nuw %"class.datalog::mk_slice", ptr %15, i32 0, i32 7
  %57 = load i32, ptr %12, align 4, !tbaa !50
  %58 = call noundef nonnull align 1 dereferenceable(1) ptr @_ZN6vectorIbLb0EjEixEj(ptr noundef nonnull align 8 dereferenceable(8) %56, i32 noundef %57)
  %59 = load i8, ptr %58, align 1, !tbaa !51, !range !53, !noundef !54
  %60 = trunc i8 %59 to i1
  %61 = zext i1 %60 to i32
  %62 = and i32 %61, %55
  %63 = icmp ne i32 %62, 0
  %64 = zext i1 %63 to i8
  store i8 %64, ptr %58, align 1, !tbaa !51
  call void @llvm.lifetime.end.p0(i64 4, ptr %12) #3
  br label %68

65:                                               ; preds = %30
  %66 = load ptr, ptr %9, align 8, !tbaa !246
  %67 = load i32, ptr %10, align 4, !tbaa !50
  call void @_ZN10bit_vector5unsetEj(ptr noundef nonnull align 8 dereferenceable(16) %66, i32 noundef %67)
  br label %68

68:                                               ; preds = %65, %51
  call void @llvm.lifetime.end.p0(i64 8, ptr %11) #3
  br label %69

69:                                               ; preds = %68
  %70 = load i32, ptr %10, align 4, !tbaa !50
  %71 = add i32 %70, 1
  store i32 %71, ptr %10, align 4, !tbaa !50
  br label %18, !llvm.loop !364

72:                                               ; preds = %23
  call void @llvm.lifetime.end.p0(i64 8, ptr %9) #3
  ret void
}