; Function Attrs: mustprogress uwtable
define hidden void @_ZN7datalog8mk_slice9init_varsEP3appbb(ptr noundef nonnull align 8 dereferenceable(168) %0, ptr noundef readonly captures(none) %1, i1 noundef zeroext %2, i1 noundef zeroext %3) local_unnamed_addr #3 align 2 {
  %5 = getelementptr inbounds nuw i8, ptr %1, i64 16
  %6 = load ptr, ptr %5, align 8, !tbaa !263
  %7 = tail call noundef nonnull align 8 dereferenceable(16) ptr @_ZN7datalog8mk_slice19get_predicate_sliceEP9func_decl(ptr noundef nonnull align 8 dereferenceable(168) %0, ptr noundef %6)
  %8 = getelementptr inbounds nuw i8, ptr %1, i64 24
  %9 = load i32, ptr %8, align 8, !tbaa !267
  %.not = icmp eq i32 %9, 0
  br i1 %.not, label %._crit_edge, label %.lr.ph

.lr.ph:                                           ; preds = %4
  %10 = getelementptr inbounds nuw i8, ptr %7, i64 8
  %11 = getelementptr inbounds nuw i8, ptr %1, i64 32
  %12 = getelementptr inbounds nuw i8, ptr %0, i64 48
  %13 = getelementptr inbounds nuw i8, ptr %0, i64 56
  %14 = getelementptr inbounds nuw i8, ptr %0, i64 80
  br i1 %3, label %.lr.ph.split.us, label %.lr.ph.split

.lr.ph.split.us:                                  ; preds = %.lr.ph
  %.pre35 = load ptr, ptr %10, align 8, !tbaa !253
  br i1 %2, label %.lr.ph.split.us.split.us, label %.lr.ph.split.us.split

.lr.ph.split.us.split.us:                         ; preds = %.lr.ph.split.us, %47
  %15 = phi ptr [ %48, %47 ], [ %.pre35, %.lr.ph.split.us ]
  %indvars.iv32 = phi i64 [ %indvars.iv.next33, %47 ], [ 0, %.lr.ph.split.us ]
  %16 = trunc nuw i64 %indvars.iv32 to i32
  %17 = and i32 %16, 31
  %18 = shl nuw i32 1, %17
  %19 = xor i32 %18, -1
  %20 = lshr i64 %indvars.iv32, 5
  %21 = getelementptr inbounds nuw i32, ptr %15, i64 %20
  %22 = load i32, ptr %21, align 4, !tbaa !231
  %23 = and i32 %22, %19
  store i32 %23, ptr %21, align 4, !tbaa !231
  %24 = getelementptr inbounds nuw [0 x ptr], ptr %11, i64 0, i64 %indvars.iv32
  %25 = load ptr, ptr %24, align 8, !tbaa !232
  %26 = getelementptr inbounds nuw i8, ptr %25, i64 4
  %27 = load i32, ptr %26, align 4
  %28 = and i32 %27, 65535
  %29 = icmp eq i32 %28, 1
  br i1 %29, label %30, label %47

30:                                               ; preds = %.lr.ph.split.us.split.us
  %31 = getelementptr inbounds nuw i8, ptr %25, i64 16
  %32 = load i32, ptr %31, align 8, !tbaa !277
  tail call void @_ZN7datalog8mk_slice7add_varEj(ptr noundef nonnull align 8 dereferenceable(168) %0, i32 noundef %32)
  %33 = load ptr, ptr %13, align 8, !tbaa !229
  %34 = zext i32 %32 to i64
  %35 = getelementptr inbounds nuw i8, ptr %33, i64 %34
  store i8 1, ptr %35, align 1, !tbaa !275
  %36 = load ptr, ptr %10, align 8, !tbaa !253
  %37 = getelementptr inbounds nuw i32, ptr %36, i64 %20
  %38 = load i32, ptr %37, align 4, !tbaa !231
  %39 = and i32 %38, %18
  %40 = icmp ne i32 %39, 0
  %41 = load ptr, ptr %14, align 8, !tbaa !229
  %42 = getelementptr inbounds nuw i8, ptr %41, i64 %34
  %43 = load i8, ptr %42, align 1, !tbaa !275, !range !279, !noundef !280
  %44 = icmp ne i8 %43, 0
  %45 = and i1 %40, %44
  %46 = zext i1 %45 to i8
  store i8 %46, ptr %42, align 1, !tbaa !275
  br label %47

47:                                               ; preds = %.lr.ph.split.us.split.us, %30
  %48 = phi ptr [ %36, %30 ], [ %15, %.lr.ph.split.us.split.us ]
  %indvars.iv.next33 = add nuw nsw i64 %indvars.iv32, 1
  %49 = load i32, ptr %8, align 8, !tbaa !267
  %50 = zext i32 %49 to i64
  %51 = icmp samesign ult i64 %indvars.iv.next33, %50
  br i1 %51, label %.lr.ph.split.us.split.us, label %._crit_edge, !llvm.loop !369

.lr.ph.split.us.split:                            ; preds = %.lr.ph.split.us, %84
  %52 = phi ptr [ %85, %84 ], [ %.pre35, %.lr.ph.split.us ]
  %indvars.iv29 = phi i64 [ %indvars.iv.next30, %84 ], [ 0, %.lr.ph.split.us ]
  %53 = trunc nuw i64 %indvars.iv29 to i32
  %54 = and i32 %53, 31
  %55 = shl nuw i32 1, %54
  %56 = xor i32 %55, -1
  %57 = lshr i64 %indvars.iv29, 5
  %58 = getelementptr inbounds nuw i32, ptr %52, i64 %57
  %59 = load i32, ptr %58, align 4, !tbaa !231
  %60 = and i32 %59, %56
  store i32 %60, ptr %58, align 4, !tbaa !231
  %61 = getelementptr inbounds nuw [0 x ptr], ptr %11, i64 0, i64 %indvars.iv29
  %62 = load ptr, ptr %61, align 8, !tbaa !232
  %63 = getelementptr inbounds nuw i8, ptr %62, i64 4
  %64 = load i32, ptr %63, align 4
  %65 = and i32 %64, 65535
  %66 = icmp eq i32 %65, 1
  br i1 %66, label %67, label %84

67:                                               ; preds = %.lr.ph.split.us.split
  %68 = getelementptr inbounds nuw i8, ptr %62, i64 16
  %69 = load i32, ptr %68, align 8, !tbaa !277
  tail call void @_ZN7datalog8mk_slice7add_varEj(ptr noundef nonnull align 8 dereferenceable(168) %0, i32 noundef %69)
  %70 = load ptr, ptr %12, align 8, !tbaa !229
  %71 = zext i32 %69 to i64
  %72 = getelementptr inbounds nuw i8, ptr %70, i64 %71
  store i8 1, ptr %72, align 1, !tbaa !275
  %73 = load ptr, ptr %10, align 8, !tbaa !253
  %74 = getelementptr inbounds nuw i32, ptr %73, i64 %57
  %75 = load i32, ptr %74, align 4, !tbaa !231
  %76 = and i32 %75, %55
  %77 = icmp ne i32 %76, 0
  %78 = load ptr, ptr %14, align 8, !tbaa !229
  %79 = getelementptr inbounds nuw i8, ptr %78, i64 %71
  %80 = load i8, ptr %79, align 1, !tbaa !275, !range !279, !noundef !280
  %81 = icmp ne i8 %80, 0
  %82 = and i1 %77, %81
  %83 = zext i1 %82 to i8
  store i8 %83, ptr %79, align 1, !tbaa !275
  br label %84

84:                                               ; preds = %.lr.ph.split.us.split, %67
  %85 = phi ptr [ %73, %67 ], [ %52, %.lr.ph.split.us.split ]
  %indvars.iv.next30 = add nuw nsw i64 %indvars.iv29, 1
  %86 = load i32, ptr %8, align 8, !tbaa !267
  %87 = zext i32 %86 to i64
  %88 = icmp samesign ult i64 %indvars.iv.next30, %87
  br i1 %88, label %.lr.ph.split.us.split, label %._crit_edge, !llvm.loop !369

.lr.ph.split:                                     ; preds = %.lr.ph
  br i1 %2, label %.lr.ph.split.split.us, label %.lr.ph.split.split

.lr.ph.split.split.us:                            ; preds = %.lr.ph.split, %126
  %indvars.iv26 = phi i64 [ %indvars.iv.next27, %126 ], [ 0, %.lr.ph.split ]
  %89 = getelementptr inbounds nuw [0 x ptr], ptr %11, i64 0, i64 %indvars.iv26
  %90 = load ptr, ptr %89, align 8, !tbaa !232
  %91 = getelementptr inbounds nuw i8, ptr %90, i64 4
  %92 = load i32, ptr %91, align 4
  %93 = and i32 %92, 65535
  %94 = icmp eq i32 %93, 1
  br i1 %94, label %105, label %95

95:                                               ; preds = %.lr.ph.split.split.us
  %96 = trunc nuw i64 %indvars.iv26 to i32
  %97 = and i32 %96, 31
  %98 = shl nuw i32 1, %97
  %99 = xor i32 %98, -1
  %100 = load ptr, ptr %10, align 8, !tbaa !253
  %101 = lshr i64 %indvars.iv26, 5
  %102 = getelementptr inbounds nuw i32, ptr %100, i64 %101
  %103 = load i32, ptr %102, align 4, !tbaa !231
  %104 = and i32 %103, %99
  store i32 %104, ptr %102, align 4, !tbaa !231
  br label %126

105:                                              ; preds = %.lr.ph.split.split.us
  %106 = getelementptr inbounds nuw i8, ptr %90, i64 16
  %107 = load i32, ptr %106, align 8, !tbaa !277
  tail call void @_ZN7datalog8mk_slice7add_varEj(ptr noundef nonnull align 8 dereferenceable(168) %0, i32 noundef %107)
  %108 = load ptr, ptr %13, align 8, !tbaa !229
  %109 = zext i32 %107 to i64
  %110 = getelementptr inbounds nuw i8, ptr %108, i64 %109
  store i8 1, ptr %110, align 1, !tbaa !275
  %111 = load ptr, ptr %10, align 8, !tbaa !253
  %112 = trunc nuw i64 %indvars.iv26 to i32
  %113 = lshr i64 %indvars.iv26, 5
  %114 = getelementptr inbounds nuw i32, ptr %111, i64 %113
  %115 = load i32, ptr %114, align 4, !tbaa !231
  %116 = and i32 %112, 31
  %117 = shl nuw i32 1, %116
  %118 = and i32 %115, %117
  %119 = icmp ne i32 %118, 0
  %120 = load ptr, ptr %14, align 8, !tbaa !229
  %121 = getelementptr inbounds nuw i8, ptr %120, i64 %109
  %122 = load i8, ptr %121, align 1, !tbaa !275, !range !279, !noundef !280
  %123 = icmp ne i8 %122, 0
  %124 = and i1 %119, %123
  %125 = zext i1 %124 to i8
  store i8 %125, ptr %121, align 1, !tbaa !275
  br label %126

126:                                              ; preds = %105, %95
  %indvars.iv.next27 = add nuw nsw i64 %indvars.iv26, 1
  %127 = load i32, ptr %8, align 8, !tbaa !267
  %128 = zext i32 %127 to i64
  %129 = icmp samesign ult i64 %indvars.iv.next27, %128
  br i1 %129, label %.lr.ph.split.split.us, label %._crit_edge, !llvm.loop !369

._crit_edge:                                      ; preds = %167, %126, %84, %47, %4
  ret void

.lr.ph.split.split:                               ; preds = %.lr.ph.split, %167
  %indvars.iv = phi i64 [ %indvars.iv.next, %167 ], [ 0, %.lr.ph.split ]
  %130 = getelementptr inbounds nuw [0 x ptr], ptr %11, i64 0, i64 %indvars.iv
  %131 = load ptr, ptr %130, align 8, !tbaa !232
  %132 = getelementptr inbounds nuw i8, ptr %131, i64 4
  %133 = load i32, ptr %132, align 4
  %134 = and i32 %133, 65535
  %135 = icmp eq i32 %134, 1
  br i1 %135, label %136, label %157

136:                                              ; preds = %.lr.ph.split.split
  %137 = getelementptr inbounds nuw i8, ptr %131, i64 16
  %138 = load i32, ptr %137, align 8, !tbaa !277
  tail call void @_ZN7datalog8mk_slice7add_varEj(ptr noundef nonnull align 8 dereferenceable(168) %0, i32 noundef %138)
  %139 = load ptr, ptr %12, align 8, !tbaa !229
  %140 = zext i32 %138 to i64
  %141 = getelementptr inbounds nuw i8, ptr %139, i64 %140
  store i8 1, ptr %141, align 1, !tbaa !275
  %142 = load ptr, ptr %10, align 8, !tbaa !253
  %143 = trunc nuw i64 %indvars.iv to i32
  %144 = lshr i64 %indvars.iv, 5
  %145 = getelementptr inbounds nuw i32, ptr %142, i64 %144
  %146 = load i32, ptr %145, align 4, !tbaa !231
  %147 = and i32 %143, 31
  %148 = shl nuw i32 1, %147
  %149 = and i32 %146, %148
  %150 = icmp ne i32 %149, 0
  %151 = load ptr, ptr %14, align 8, !tbaa !229
  %152 = getelementptr inbounds nuw i8, ptr %151, i64 %140
  %153 = load i8, ptr %152, align 1, !tbaa !275, !range !279, !noundef !280
  %154 = icmp ne i8 %153, 0
  %155 = and i1 %150, %154
  %156 = zext i1 %155 to i8
  store i8 %156, ptr %152, align 1, !tbaa !275
  br label %167

157:                                              ; preds = %.lr.ph.split.split
  %158 = trunc nuw i64 %indvars.iv to i32
  %159 = and i32 %158, 31
  %160 = shl nuw i32 1, %159
  %161 = xor i32 %160, -1
  %162 = load ptr, ptr %10, align 8, !tbaa !253
  %163 = lshr i64 %indvars.iv, 5
  %164 = getelementptr inbounds nuw i32, ptr %162, i64 %163
  %165 = load i32, ptr %164, align 4, !tbaa !231
  %166 = and i32 %165, %161
  store i32 %166, ptr %164, align 4, !tbaa !231
  br label %167

167:                                              ; preds = %157, %136
  %indvars.iv.next = add nuw nsw i64 %indvars.iv, 1
  %168 = load i32, ptr %8, align 8, !tbaa !267
  %169 = zext i32 %168 to i64
  %170 = icmp samesign ult i64 %indvars.iv.next, %169
  br i1 %170, label %.lr.ph.split.split, label %._crit_edge, !llvm.loop !369
}